; Function Attrs: mustprogress uwtable
define void @_ZN7rocksdb22HistogramWindowingImpl9TimerTickEv(ptr noundef nonnull align 8 dereferenceable(1032) %this) local_unnamed_addr #0 align 2 personality ptr @__gxx_personality_v0 {
entry:
  %clock_ = getelementptr inbounds i8, ptr %this, i64 8
  %0 = load ptr, ptr %clock_, align 8
  %vtable = load ptr, ptr %0, align 8
  %vfn = getelementptr inbounds i8, ptr %vtable, i64 152
  %1 = load ptr, ptr %vfn, align 8
  %call2 = tail call noundef i64 %1(ptr noundef nonnull align 8 dereferenceable(32) %0)
  %current_window_.i = getelementptr inbounds i8, ptr %this, i64 992
  %2 = load atomic i64, ptr %current_window_.i monotonic, align 8
  %last_swap_time_.i = getelementptr inbounds i8, ptr %this, i64 1000
  %3 = load atomic i64, ptr %last_swap_time_.i monotonic, align 8
  %sub = sub i64 %call2, %3
  %micros_per_window_ = getelementptr inbounds i8, ptr %this, i64 1016
  %4 = load i64, ptr %micros_per_window_, align 8
  %cmp = icmp ugt i64 %sub, %4
  br i1 %cmp, label %land.lhs.true, label %if.end

land.lhs.true:                                    ; preds = %entry
  %window_stats_ = getelementptr inbounds i8, ptr %this, i64 984
  %5 = load ptr, ptr %window_stats_, align 8
  %num_.i = getelementptr inbounds %"struct.rocksdb::HistogramStat", ptr %5, i64 %2, i32 2
  %6 = load atomic i64, ptr %num_.i monotonic, align 8
  %min_num_per_window_ = getelementptr inbounds i8, ptr %this, i64 1024
  %7 = load i64, ptr %min_num_per_window_, align 8
  %cmp7.not = icmp ult i64 %6, %7
  br i1 %cmp7.not, label %if.end, label %if.then

if.then:                                          ; preds = %land.lhs.true
  tail call void @_ZN7rocksdb22HistogramWindowingImpl17SwapHistoryBucketEv(ptr noundef nonnull align 8 dereferenceable(1032) %this)
  br label %if.end

if.end:                                           ; preds = %if.then, %land.lhs.true, %entry
  ret void
}